; Function Attrs: mustprogress uwtable
define noundef nonnull ptr @_ZN5faiss21read_ProductQuantizerEPKc(ptr noundef %0) local_unnamed_addr #3 personality ptr @__gxx_personality_v0 {
  %2 = alloca %"struct.faiss::FileIOReader", align 8
  call void @llvm.lifetime.start.p0(i64 56, ptr nonnull %2) #27
  call void @_ZN5faiss12FileIOReaderC1EPKc(ptr noundef nonnull align 8 dereferenceable(49) %2, ptr noundef %0)
  %3 = invoke noalias noundef nonnull dereferenceable(216) ptr @_Znwm(i64 noundef 216) #32
          to label %.noexc unwind label %11

.noexc:                                           ; preds = %1
  invoke void @_ZN5faiss16ProductQuantizerC1Ev(ptr noundef nonnull align 8 dereferenceable(216) %3)
          to label %4 unwind label %5

4:                                                ; preds = %.noexc
  invoke void @_ZN5faiss21read_ProductQuantizerEPNS_16ProductQuantizerEPNS_8IOReaderE(ptr noundef nonnull %3, ptr noundef nonnull %2)
          to label %_ZN5faiss21read_ProductQuantizerEPNS_8IOReaderE.exit unwind label %_ZNSt10unique_ptrIN5faiss16ProductQuantizerESt14default_deleteIS1_EED2Ev.exit9.i

5:                                                ; preds = %.noexc
  %6 = landingpad { ptr, i32 }
          cleanup
  call void @_ZdlPvm(ptr noundef nonnull %3, i64 noundef 216) #30
  br label %.body

_ZNSt10unique_ptrIN5faiss16ProductQuantizerESt14default_deleteIS1_EED2Ev.exit9.i: ; preds = %4
  %7 = landingpad { ptr, i32 }
          cleanup
  %8 = load ptr, ptr %3, align 8, !tbaa !4
  %9 = getelementptr inbounds nuw i8, ptr %8, i64 32
  %10 = load ptr, ptr %9, align 8
  call void %10(ptr noundef nonnull align 8 dereferenceable(216) %3) #27
  br label %.body

_ZN5faiss21read_ProductQuantizerEPNS_8IOReaderE.exit: ; preds = %4
  call void @_ZN5faiss12FileIOReaderD1Ev(ptr noundef nonnull align 8 dereferenceable(49) %2) #27
  call void @llvm.lifetime.end.p0(i64 56, ptr nonnull %2) #27
  ret ptr %3

11:                                               ; preds = %1
  %12 = landingpad { ptr, i32 }
          cleanup
  br label %.body

.body:                                            ; preds = %5, %_ZNSt10unique_ptrIN5faiss16ProductQuantizerESt14default_deleteIS1_EED2Ev.exit9.i, %11
  %eh.lpad-body = phi { ptr, i32 } [ %12, %11 ], [ %7, %_ZNSt10unique_ptrIN5faiss16ProductQuantizerESt14default_deleteIS1_EED2Ev.exit9.i ], [ %6, %5 ]
  call void @_ZN5faiss12FileIOReaderD1Ev(ptr noundef nonnull align 8 dereferenceable(49) %2) #27
  call void @llvm.lifetime.end.p0(i64 56, ptr nonnull %2) #27
  resume { ptr, i32 } %eh.lpad-body
}